target datalayout = "e-m:e-p270:32:32-p271:32:32-p272:64:64-i64:64-i128:128-f80:128-n8:16:32:64-S128"
target triple = "x86_64-pc-linux-gnu"

%struct.png_struct_def = type { [1 x %struct.__jmp_buf_tag], ptr, ptr, i64, ptr, ptr, ptr, ptr, ptr, ptr, ptr, ptr, ptr, i8, i8, i32, i32, i32, i32, %struct.z_stream_s, ptr, i32, i32, i32, i32, i32, i32, i32, i32, i32, i32, i32, i32, i32, i32, i32, i32, i32, i32, i32, i32, i64, i32, i32, i32, ptr, ptr, ptr, ptr, i64, i32, i32, ptr, i16, i32, i16, i8, i8, i8, i8, i8, i8, i8, i8, i8, i8, i8, i8, i8, i8, i8, i16, i8, i32, %struct.png_color_16_struct, %struct.png_color_16_struct, ptr, i32, i32, i32, i32, ptr, ptr, ptr, ptr, ptr, ptr, %struct.png_color_8_struct, %struct.png_color_8_struct, ptr, %struct.png_color_16_struct, ptr, ptr, ptr, ptr, ptr, ptr, ptr, ptr, ptr, i32, i32, i64, i64, i64, i64, i32, i32, ptr, ptr, i32, [29 x i8], i32, ptr, ptr, i32, i32, ptr, i8, i8, i16, i16, ptr, i32, i8, ptr, ptr, ptr, ptr, ptr, ptr, ptr, i8, i32, i32, i32, i64, %struct.png_unknown_chunk_t, i64, ptr, i64, i32, i32, ptr, [4 x ptr], %struct.png_colorspace }
%struct.__jmp_buf_tag = type { [8 x i64], i32, %struct.__sigset_t }
%struct.__sigset_t = type { [16 x i64] }
%struct.z_stream_s = type { ptr, i32, i64, ptr, i32, i64, ptr, ptr, ptr, ptr, ptr, i32, i64, i64 }
%struct.png_color_8_struct = type { i8, i8, i8, i8, i8 }
%struct.png_color_16_struct = type { i8, i16, i16, i16, i16 }
%struct.png_unknown_chunk_t = type { [5 x i8], ptr, i64, i8 }
%struct.png_colorspace = type { i32, %struct.png_xy, %struct.png_XYZ, i16, i16 }
%struct.png_xy = type { i32, i32, i32, i32, i32, i32, i32, i32 }
%struct.png_XYZ = type { i32, i32, i32, i32, i32, i32, i32, i32, i32 }

@.str.4 = private unnamed_addr constant [58 x i8] c"png_start_read_image/png_read_update_info: duplicate call\00", align 1
@.str.9 = private unnamed_addr constant [65 x i8] c"Interlace handling should be turned on when using png_read_image\00", align 1

; Function Attrs: nounwind uwtable
define void @png_start_read_image(ptr noalias noundef %0) #0 {
  %2 = alloca ptr, align 8
  store ptr %0, ptr %2, align 8
  %3 = load ptr, ptr %2, align 8
  %4 = icmp ne ptr %3, null
  br i1 %4, label %5, label %16

5:                                                ; preds = %1
  %6 = load ptr, ptr %2, align 8
  %7 = getelementptr inbounds %struct.png_struct_def, ptr %6, i32 0, i32 16
  %8 = load i32, ptr %7, align 8
  %9 = and i32 %8, 64
  %10 = icmp eq i32 %9, 0
  br i1 %10, label %11, label %13

11:                                               ; preds = %5
  %12 = load ptr, ptr %2, align 8
  call void @png_read_start_row(ptr noundef %12)
  br label %15

13:                                               ; preds = %5
  %14 = load ptr, ptr %2, align 8
  call void @png_app_error(ptr noundef %14, ptr noundef @.str.4)
  br label %15

15:                                               ; preds = %13, %11
  br label %16

16:                                               ; preds = %15, %1
  ret void
}

; Function Attrs: nounwind uwtable
define void @png_read_image(ptr noalias noundef %0, ptr noundef %1) #0 {
  %3 = alloca ptr, align 8
  %4 = alloca ptr, align 8
  %5 = alloca i32, align 4
  %6 = alloca i32, align 4
  %7 = alloca i32, align 4
  %8 = alloca i32, align 4
  %9 = alloca ptr, align 8
  store ptr %0, ptr %3, align 8
  store ptr %1, ptr %4, align 8
  %10 = load ptr, ptr %3, align 8
  %11 = icmp eq ptr %10, null
  br i1 %11, label %12, label %13

12:                                               ; preds = %2
  br label %72

13:                                               ; preds = %2
  %14 = load ptr, ptr %3, align 8
  %15 = getelementptr inbounds %struct.png_struct_def, ptr %14, i32 0, i32 16
  %16 = load i32, ptr %15, align 8
  %17 = and i32 %16, 64
  %18 = icmp eq i32 %17, 0
  br i1 %18, label %19, label %23

19:                                               ; preds = %13
  %20 = load ptr, ptr %3, align 8
  %21 = call i32 @png_set_interlace_handling(ptr noundef %20)
  store i32 %21, ptr %7, align 4
  %22 = load ptr, ptr %3, align 8
  call void @png_start_read_image(ptr noundef %22)
  br label %45

23:                                               ; preds = %13
  %24 = load ptr, ptr %3, align 8
  %25 = getelementptr inbounds %struct.png_struct_def, ptr %24, i32 0, i32 58
  %26 = load i8, ptr %25, align 4
  %27 = zext i8 %26 to i32
  %28 = icmp ne i32 %27, 0
  br i1 %28, label %29, label %42

29:                                               ; preds = %23
  %30 = load ptr, ptr %3, align 8
  %31 = getelementptr inbounds %struct.png_struct_def, ptr %30, i32 0, i32 17
  %32 = load i32, ptr %31, align 4
  %33 = and i32 %32, 2
  %34 = icmp eq i32 %33, 0
  br i1 %34, label %35, label %42

35:                                               ; preds = %29
  %36 = load ptr, ptr %3, align 8
  call void @png_warning(ptr noundef %36, ptr noundef @.str.9)
  %37 = load ptr, ptr %3, align 8
  %38 = getelementptr inbounds %struct.png_struct_def, ptr %37, i32 0, i32 38
  %39 = load i32, ptr %38, align 4
  %40 = load ptr, ptr %3, align 8
  %41 = getelementptr inbounds %struct.png_struct_def, ptr %40, i32 0, i32 39
  store i32 %39, ptr %41, align 8
  br label %42

42:                                               ; preds = %35, %29, %23
  %43 = load ptr, ptr %3, align 8
  %44 = call i32 @png_set_interlace_handling(ptr noundef %43)
  store i32 %44, ptr %7, align 4
  br label %45

45:                                               ; preds = %42, %19
  %46 = load ptr, ptr %3, align 8
  %47 = getelementptr inbounds %struct.png_struct_def, ptr %46, i32 0, i32 38
  %48 = load i32, ptr %47, align 4
  store i32 %48, ptr %6, align 4
  store i32 0, ptr %8, align 4
  br label %49

49:                                               ; preds = %69, %45
  %50 = load i32, ptr %8, align 4
  %51 = load i32, ptr %7, align 4
  %52 = icmp slt i32 %50, %51
  br i1 %52, label %53, label %72

53:                                               ; preds = %49
  %54 = load ptr, ptr %4, align 8
  store ptr %54, ptr %9, align 8
  store i32 0, ptr %5, align 4
  br label %55

55:                                               ; preds = %65, %53
  %56 = load i32, ptr %5, align 4
  %57 = load i32, ptr %6, align 4
  %58 = icmp ult i32 %56, %57
  br i1 %58, label %59, label %68

59:                                               ; preds = %55
  %60 = load ptr, ptr %3, align 8
  %61 = load ptr, ptr %9, align 8
  %62 = load ptr, ptr %61, align 8
  call void @png_read_row(ptr noundef %60, ptr noundef %62, ptr noundef null)
  %63 = load ptr, ptr %9, align 8
  %64 = getelementptr inbounds ptr, ptr %63, i32 1
  store ptr %64, ptr %9, align 8
  br label %65

65:                                               ; preds = %59
  %66 = load i32, ptr %5, align 4
  %67 = add i32 %66, 1
  store i32 %67, ptr %5, align 4
  br label %55, !llvm.loop !10

68:                                               ; preds = %55
  br label %69

69:                                               ; preds = %68
  %70 = load i32, ptr %8, align 4
  %71 = add nsw i32 %70, 1
  store i32 %71, ptr %8, align 4
  br label %49, !llvm.loop !11

72:                                               ; preds = %49, %12
  ret void
}